target datalayout = "e-m:e-p270:32:32-p271:32:32-p272:64:64-i64:64-i128:128-f80:128-n8:16:32:64-S128"
target triple = "x86_64-pc-linux-gnu"

; Function Attrs: mustprogress uwtable
define noundef zeroext i8 @_ZN3net26Http2WeightToSpdy3PriorityEi(i32 noundef %0) #0 {
  %2 = alloca i32, align 4
  %3 = alloca float, align 4
  store i32 %0, ptr %2, align 4, !tbaa !17
  %4 = load i32, ptr %2, align 4, !tbaa !17
  %5 = call noundef i32 @_ZN3net16ClampHttp2WeightEi(i32 noundef %4)
  store i32 %5, ptr %2, align 4, !tbaa !17
  call void @llvm.lifetime.start.p0(i64 4, ptr %3) #15
  store float 0x4042475060000000, ptr %3, align 4, !tbaa !19
  %6 = load i32, ptr %2, align 4, !tbaa !17
  %7 = sub nsw i32 %6, 1
  %8 = sitofp i32 %7 to float
  %9 = fdiv float %8, 0x4042475060000000
  %10 = fsub float 7.000000e+00, %9
  %11 = fptoui float %10 to i8
  call void @llvm.lifetime.end.p0(i64 4, ptr %3) #15
  ret i8 %11
}