; Function Attrs: mustprogress uwtable
define noundef zeroext i8 @_ZN3net26Http2WeightToSpdy3PriorityEi(i32 noundef %0) local_unnamed_addr #0 {
  %2 = tail call noundef i32 @_ZN3net16ClampHttp2WeightEi(i32 noundef %0)
  %3 = add nsw i32 %2, -1
  %4 = uitofp nneg i32 %3 to float
  %5 = fdiv float %4, 0x4042475060000000
  %6 = fsub float 7.000000e+00, %5
  %7 = fptoui float %6 to i8
  ret i8 %7
}